target datalayout = "e-m:e-p270:32:32-p271:32:32-p272:64:64-i64:64-i128:128-f80:128-n8:16:32:64-S128"
target triple = "x86_64-pc-linux-gnu"

%struct._stringlist = type { ptr, ptr }

; Function Attrs: nounwind uwtable
define internal void @free_stringlist(ptr noundef %0) #0 {
  %2 = alloca ptr, align 8
  store ptr %0, ptr %2, align 8
  %3 = load ptr, ptr %2, align 8
  %4 = icmp eq ptr %3, null
  br i1 %4, label %9, label %5

5:                                                ; preds = %1
  %6 = load ptr, ptr %2, align 8
  %7 = load ptr, ptr %6, align 8
  %8 = icmp eq ptr %7, null
  br i1 %8, label %9, label %10

9:                                                ; preds = %5, %1
  br label %28

10:                                               ; preds = %5
  %11 = load ptr, ptr %2, align 8
  %12 = load ptr, ptr %11, align 8
  %13 = getelementptr inbounds nuw %struct._stringlist, ptr %12, i32 0, i32 1
  %14 = load ptr, ptr %13, align 8
  %15 = icmp ne ptr %14, null
  br i1 %15, label %16, label %20

16:                                               ; preds = %10
  %17 = load ptr, ptr %2, align 8
  %18 = load ptr, ptr %17, align 8
  %19 = getelementptr inbounds nuw %struct._stringlist, ptr %18, i32 0, i32 1
  call void @free_stringlist(ptr noundef %19)
  br label %20

20:                                               ; preds = %16, %10
  %21 = load ptr, ptr %2, align 8
  %22 = load ptr, ptr %21, align 8
  %23 = getelementptr inbounds nuw %struct._stringlist, ptr %22, i32 0, i32 0
  %24 = load ptr, ptr %23, align 8
  call void @free(ptr noundef %24) #14
  %25 = load ptr, ptr %2, align 8
  %26 = load ptr, ptr %25, align 8
  call void @free(ptr noundef %26) #14
  %27 = load ptr, ptr %2, align 8
  store ptr null, ptr %27, align 8
  br label %28

28:                                               ; preds = %20, %9
  ret void
}