; Function Attrs: nounwind uwtable
define internal fastcc void @free_stringlist(ptr noundef captures(address_is_null) %0) unnamed_addr #0 {
  %2 = icmp eq ptr %0, null
  br i1 %2, label %14, label %3

3:                                                ; preds = %1
  %4 = load ptr, ptr %0, align 8
  %5 = icmp eq ptr %4, null
  br i1 %5, label %14, label %6

6:                                                ; preds = %3
  %7 = getelementptr inbounds nuw i8, ptr %4, i64 8
  %8 = load ptr, ptr %7, align 8
  %.not = icmp eq ptr %8, null
  br i1 %.not, label %10, label %9

9:                                                ; preds = %6
  tail call fastcc void @free_stringlist(ptr noundef nonnull %7)
  %.pre = load ptr, ptr %0, align 8
  br label %10

10:                                               ; preds = %9, %6
  %11 = phi ptr [ %.pre, %9 ], [ %4, %6 ]
  %12 = load ptr, ptr %11, align 8
  tail call void @free(ptr noundef %12) #22
  %13 = load ptr, ptr %0, align 8
  tail call void @free(ptr noundef %13) #22
  store ptr null, ptr %0, align 8
  br label %14

14:                                               ; preds = %1, %3, %10
  ret void
}